; Function Attrs: null_pointer_is_valid sspstrong uwtable
define hidden range(i32 -268435456, 268435456) i32 @dissect_lpp_AssistanceDataSIBelement_r15_PDU(ptr noundef %0, ptr noundef %1, ptr noundef %2, i32 noundef %3) local_unnamed_addr #0 {
  %5 = alloca %struct._asn1_ctx_t, align 8
  call void @llvm.lifetime.start.p0(i64 208, ptr nonnull %5) #10
  %6 = getelementptr inbounds nuw i8, ptr %1, i64 408
  %7 = load ptr, ptr %6, align 8
  %8 = load i32, ptr @proto_lpp, align 4
  %9 = tail call ptr @p_get_proto_data(ptr noundef %7, ptr noundef %1, i32 noundef %8, i32 noundef 0)
  %.not.i = icmp eq ptr %9, null
  br i1 %.not.i, label %10, label %lpp_get_private_data.exit

10:                                               ; preds = %4
  %11 = load ptr, ptr %6, align 8
  %12 = tail call noalias dereferenceable_or_null(8) ptr @wmem_alloc0(ptr noundef %11, i64 noundef 8) #11
  %13 = load ptr, ptr %6, align 8
  %14 = load i32, ptr @proto_lpp, align 4
  tail call void @p_add_proto_data(ptr noundef %13, ptr noundef %1, i32 noundef %14, i32 noundef 0, ptr noundef %12)
  br label %lpp_get_private_data.exit

lpp_get_private_data.exit:                        ; preds = %4, %10
  %.0.i = phi ptr [ %9, %4 ], [ %12, %10 ]
  call void @asn1_ctx_init(ptr noundef nonnull %5, i32 noundef 1, i1 noundef zeroext false, ptr noundef %1)
  store i32 %3, ptr %.0.i, align 4
  %15 = load i32, ptr @hf_lpp_AssistanceDataSIBelement_r15_PDU, align 4
  %16 = load i32, ptr @ett_lpp_AssistanceDataSIBelement_r15, align 4
  %17 = call i32 @dissect_per_sequence(ptr noundef %0, i32 noundef 0, ptr noundef nonnull %5, ptr noundef %2, i32 noundef %15, i32 noundef %16, ptr noundef nonnull @AssistanceDataSIBelement_r15_sequence)
  %18 = add i32 %17, 7
  %19 = ashr i32 %18, 3
  call void @llvm.lifetime.end.p0(i64 208, ptr nonnull %5) #10
  ret i32 %19
}